ccopy_reg
_reconstructor
p0
(cbot.model_infer
LoadedModel
p1
c__builtin__
object
p2
Ntp3
Rp4
(dp5
Vfeature_names
p6
(lp7
Vatr
p8
aVadx
p9
aVret
p10
aVvol
p11
asVversion
p12
V1.0
p13
sVweights
p14
(dp15
g8
F0.1
sg9
F0.2
sg10
F0.3
sg11
F-0.1
ssVbias
p16
F0.05
sb.